; Function Attrs: mustprogress uwtable
define internal noalias noundef nonnull ptr @_ZL28llama_sampler_mirostat_clonePK13llama_sampler(ptr noundef readonly captures(none) %0) #0 personality ptr @__gxx_personality_v0 {
  %2 = getelementptr inbounds nuw i8, ptr %0, i64 8
  %3 = load ptr, ptr %2, align 8, !tbaa !9
  %4 = load i32, ptr %3, align 8, !tbaa !82
  %5 = getelementptr inbounds nuw i8, ptr %3, i64 4
  %6 = load i32, ptr %5, align 4, !tbaa !84
  %7 = getelementptr inbounds nuw i8, ptr %3, i64 12
  %8 = load float, ptr %7, align 4, !tbaa !86
  %9 = getelementptr inbounds nuw i8, ptr %3, i64 16
  %10 = load float, ptr %9, align 8, !tbaa !87
  %11 = getelementptr inbounds nuw i8, ptr %3, i64 20
  %12 = load i32, ptr %11, align 4, !tbaa !88
  %13 = tail call fastcc noundef i32 @_ZL12get_rng_seedj(i32 noundef %6)
  %14 = tail call noalias noundef nonnull dereferenceable(5032) ptr @_Znwm(i64 noundef 5032) #30
  store i32 %4, ptr %14, align 16, !tbaa !82
  %15 = getelementptr inbounds nuw i8, ptr %14, i64 4
  store i32 %6, ptr %15, align 4, !tbaa !84
  %16 = getelementptr inbounds nuw i8, ptr %14, i64 8
  store i32 %13, ptr %16, align 8, !tbaa !85
  %17 = getelementptr inbounds nuw i8, ptr %14, i64 12
  store float %8, ptr %17, align 4, !tbaa !86
  %18 = getelementptr inbounds nuw i8, ptr %14, i64 16
  store float %10, ptr %18, align 16, !tbaa !87
  %19 = getelementptr inbounds nuw i8, ptr %14, i64 20
  store i32 %12, ptr %19, align 4, !tbaa !88
  %20 = getelementptr inbounds nuw i8, ptr %14, i64 24
  %21 = fmul float %8, 2.000000e+00
  store float %21, ptr %20, align 8, !tbaa !89
  %22 = getelementptr inbounds nuw i8, ptr %14, i64 32
  %23 = zext i32 %13 to i64
  store i64 %23, ptr %22, align 8, !tbaa !46
  br label %24

24:                                               ; preds = %24, %1
  %25 = phi i64 [ %23, %1 ], [ %30, %24 ]
  %.011.i.i.i = phi i64 [ 1, %1 ], [ %32, %24 ]
  %26 = lshr i64 %25, 30
  %27 = xor i64 %26, %25
  %28 = mul nuw nsw i64 %27, 1812433253
  %29 = add nuw i64 %28, %.011.i.i.i
  %30 = and i64 %29, 4294967295
  %31 = getelementptr inbounds nuw [624 x i64], ptr %22, i64 0, i64 %.011.i.i.i
  store i64 %30, ptr %31, align 8, !tbaa !46
  %32 = add nuw nsw i64 %.011.i.i.i, 1
  %exitcond.not.i.i.i = icmp eq i64 %32, 624
  br i1 %exitcond.not.i.i.i, label %llama_sampler_init_mirostat.exit, label %24, !llvm.loop !47

llama_sampler_init_mirostat.exit:                 ; preds = %24
  %33 = getelementptr inbounds nuw i8, ptr %14, i64 5024
  store i64 624, ptr %33, align 8, !tbaa !48
  %34 = tail call noalias noundef nonnull dereferenceable(16) ptr @_Znwm(i64 noundef 16) #30
  store ptr @_ZL24llama_sampler_mirostat_i, ptr %34, align 16, !tbaa !3
  %35 = getelementptr inbounds nuw i8, ptr %34, i64 8
  store ptr %14, ptr %35, align 8, !tbaa !9
  %36 = load ptr, ptr %2, align 8, !tbaa !9
  %37 = getelementptr inbounds nuw i8, ptr %3, i64 24
  %38 = load float, ptr %37, align 8, !tbaa !89
  %39 = getelementptr inbounds nuw i8, ptr %36, i64 24
  store float %38, ptr %39, align 8, !tbaa !89
  %40 = getelementptr inbounds nuw i8, ptr %3, i64 32
  %41 = getelementptr inbounds nuw i8, ptr %36, i64 32
  tail call void @llvm.memcpy.p0.p0.i64(ptr noundef nonnull align 8 dereferenceable(5000) %41, ptr noundef nonnull align 8 dereferenceable(5000) %40, i64 5000, i1 false), !tbaa.struct !211
  ret ptr %34
}